; Function Attrs: nofree norecurse nosync nounwind memory(read, inaccessiblemem: none) uwtable
define hidden noundef ptr @lexbor_avl_search(ptr nocapture noundef readnone %0, ptr noundef readonly %1, i64 noundef %2) local_unnamed_addr #6 {
  %.not11 = icmp eq ptr %1, null
  br i1 %.not11, label %._crit_edge, label %.lr.ph

.lr.ph:                                           ; preds = %3, %6
  %.0812 = phi ptr [ %.1, %6 ], [ %1, %3 ]
  %4 = load i64, ptr %.0812, align 8
  %5 = icmp eq i64 %4, %2
  br i1 %5, label %._crit_edge, label %6

6:                                                ; preds = %.lr.ph
  %7 = icmp ugt i64 %4, %2
  %.1.in.v = select i1 %7, i64 24, i64 32
  %.1.in = getelementptr inbounds i8, ptr %.0812, i64 %.1.in.v
  %.1 = load ptr, ptr %.1.in, align 8
  %.not = icmp eq ptr %.1, null
  br i1 %.not, label %._crit_edge, label %.lr.ph

._crit_edge:                                      ; preds = %.lr.ph, %6, %3
  %.08.lcssa = phi ptr [ null, %3 ], [ null, %6 ], [ %.0812, %.lr.ph ]
  ret ptr %.08.lcssa
}